; Function Attrs: nounwind uwtable
define internal fastcc i32 @partition_rbound_cmp(i32 noundef %0, ptr noundef %1, ptr noundef readonly captures(none) %2, ptr noundef readonly captures(none) %3, ptr noundef readonly captures(none) %4, i1 noundef zeroext %5, ptr noundef readonly captures(none) %6) unnamed_addr #0 {
  %8 = getelementptr inbounds nuw i8, ptr %6, i64 8
  %9 = load ptr, ptr %8, align 8
  %10 = getelementptr inbounds nuw i8, ptr %6, i64 16
  %11 = load ptr, ptr %10, align 8
  %12 = getelementptr inbounds nuw i8, ptr %6, i64 24
  %13 = load i8, ptr %12, align 8, !range !6, !noundef !7
  %14 = icmp sgt i32 %0, 0
  br i1 %14, label %.lr.ph.preheader, label %._crit_edge

.lr.ph.preheader:                                 ; preds = %7
  %wide.trip.count = zext nneg i32 %0 to i64
  br label %.lr.ph

15:                                               ; preds = %26
  %exitcond.not = icmp eq i64 %indvars.iv.next, %wide.trip.count
  br i1 %exitcond.not, label %._crit_edge, label %.lr.ph, !llvm.loop !41

.lr.ph:                                           ; preds = %.lr.ph.preheader, %15
  %indvars.iv = phi i64 [ 0, %.lr.ph.preheader ], [ %indvars.iv.next, %15 ]
  %indvars.iv.next = add nuw nsw i64 %indvars.iv, 1
  %16 = getelementptr inbounds nuw i32, ptr %4, i64 %indvars.iv
  %17 = load i32, ptr %16, align 4
  %18 = getelementptr inbounds nuw i32, ptr %11, i64 %indvars.iv
  %19 = load i32, ptr %18, align 4
  %20 = icmp slt i32 %17, %19
  br i1 %20, label %21, label %23

21:                                               ; preds = %.lr.ph
  %indvars72 = trunc i64 %indvars.iv to i32
  %22 = xor i32 %indvars72, -1
  br label %.loopexit

23:                                               ; preds = %.lr.ph
  %24 = icmp sgt i32 %17, %19
  br i1 %24, label %.loopexit.loopexit, label %25

25:                                               ; preds = %23
  %.not = icmp eq i32 %17, 0
  br i1 %.not, label %26, label %._crit_edge.loopexit.split.loop.exit

26:                                               ; preds = %25
  %27 = getelementptr inbounds nuw %struct.FmgrInfo, ptr %1, i64 %indvars.iv
  %28 = getelementptr inbounds nuw i32, ptr %2, i64 %indvars.iv
  %29 = load i32, ptr %28, align 4
  %30 = getelementptr inbounds nuw i64, ptr %3, i64 %indvars.iv
  %31 = load i64, ptr %30, align 8
  %32 = getelementptr inbounds nuw i64, ptr %9, i64 %indvars.iv
  %33 = load i64, ptr %32, align 8
  %34 = tail call i64 @FunctionCall2Coll(ptr noundef %27, i32 noundef %29, i64 noundef %31, i64 noundef %33) #12
  %35 = trunc i64 %34 to i32
  %.not44 = icmp eq i32 %35, 0
  br i1 %.not44, label %15, label %.loopexit54.loopexit

._crit_edge.loopexit.split.loop.exit:             ; preds = %25
  %indvars.le = trunc i64 %indvars.iv.next to i32
  br label %._crit_edge

._crit_edge:                                      ; preds = %15, %._crit_edge.loopexit.split.loop.exit, %7
  %.1.ph = phi i32 [ 0, %7 ], [ %indvars.le, %._crit_edge.loopexit.split.loop.exit ], [ %0, %15 ]
  %36 = zext i1 %5 to i8
  %.not4548 = icmp eq i8 %13, %36
  %37 = select i1 %5, i32 1, i32 -1
  %spec.select49 = select i1 %.not4548, i32 0, i32 %37
  br label %.loopexit54

.loopexit54.loopexit:                             ; preds = %26
  %indvars.le83 = trunc i64 %indvars.iv.next to i32
  br label %.loopexit54

.loopexit54:                                      ; preds = %.loopexit54.loopexit, %._crit_edge
  %.151 = phi i32 [ %.1.ph, %._crit_edge ], [ %indvars.le83, %.loopexit54.loopexit ]
  %38 = phi i32 [ %spec.select49, %._crit_edge ], [ %35, %.loopexit54.loopexit ]
  %39 = icmp eq i32 %38, 0
  %40 = icmp slt i32 %38, 0
  %41 = sub i32 0, %.151
  %42 = select i1 %40, i32 %41, i32 %.151
  %43 = select i1 %39, i32 0, i32 %42
  br label %.loopexit

.loopexit.loopexit:                               ; preds = %23
  %indvars.le85 = trunc i64 %indvars.iv.next to i32
  br label %.loopexit

.loopexit:                                        ; preds = %.loopexit.loopexit, %.loopexit54, %21
  %.0 = phi i32 [ %22, %21 ], [ %43, %.loopexit54 ], [ %indvars.le85, %.loopexit.loopexit ]
  ret i32 %.0
}